; Function Attrs: mustprogress nofree norecurse nosync nounwind willreturn memory(readwrite, inaccessiblemem: none) uwtable
define hidden void @_ZN19NullCheckEliminator22handle_ExceptionObjectEP15ExceptionObject(ptr nocapture noundef nonnull readonly align 8 dereferenceable(88) %0, ptr nocapture noundef readonly %1) local_unnamed_addr #4 align 2 {
  %3 = getelementptr inbounds i8, ptr %0, i64 32
  %4 = load ptr, ptr %3, align 8
  %5 = getelementptr inbounds i8, ptr %1, i64 8
  %6 = load i32, ptr %5, align 8
  %7 = sext i32 %6 to i64
  %8 = and i64 %7, 63
  %9 = shl nuw i64 1, %8
  %10 = load ptr, ptr %4, align 8
  %11 = lshr i64 %7, 6
  %12 = getelementptr inbounds i64, ptr %10, i64 %11
  %13 = load i64, ptr %12, align 8
  %14 = or i64 %9, %13
  store i64 %14, ptr %12, align 8
  ret void
}